; Function Attrs: nounwind uwtable
define hidden void @lj_trace_stitch(ptr noundef %0, ptr noundef %1) local_unnamed_addr #2 {
  %3 = getelementptr inbounds nuw i8, ptr %0, i64 236
  %4 = load i32, ptr %3, align 4, !tbaa !87
  %5 = icmp eq i32 %4, 0
  br i1 %5, label %6, label %lj_trace_ins.exit

6:                                                ; preds = %2
  %7 = getelementptr inbounds i8, ptr %0, i64 -591
  %8 = load i8, ptr %7, align 1, !tbaa !71
  %9 = and i8 %8, 96
  %.not = icmp eq i8 %9, 0
  br i1 %.not, label %10, label %lj_trace_ins.exit

10:                                               ; preds = %6
  %11 = getelementptr inbounds nuw i8, ptr %0, i64 3016
  store i32 0, ptr %11, align 8, !tbaa !94
  store i32 19, ptr %3, align 4, !tbaa !87
  %12 = getelementptr inbounds nuw i8, ptr %0, i64 136
  store ptr %1, ptr %12, align 8, !tbaa !83
  %13 = getelementptr inbounds nuw i8, ptr %0, i64 128
  %14 = load ptr, ptr %13, align 8, !tbaa !7
  %15 = getelementptr inbounds nuw i8, ptr %14, i64 32
  %16 = load ptr, ptr %15, align 8, !tbaa !84
  %17 = getelementptr inbounds i8, ptr %16, i64 -16
  %18 = load i64, ptr %17, align 8, !tbaa !4
  %19 = and i64 %18, 140737488355327
  %20 = inttoptr i64 %19 to ptr
  %21 = getelementptr inbounds nuw i8, ptr %0, i64 144
  store ptr %20, ptr %21, align 8, !tbaa !85
  %22 = getelementptr inbounds nuw i8, ptr %20, i64 10
  %23 = load i8, ptr %22, align 2, !tbaa !4
  %24 = icmp eq i8 %23, 0
  br i1 %24, label %25, label %30

25:                                               ; preds = %10
  %26 = getelementptr inbounds nuw i8, ptr %20, i64 32
  %27 = load i64, ptr %26, align 8, !tbaa !4
  %28 = inttoptr i64 %27 to ptr
  %29 = getelementptr inbounds i8, ptr %28, i64 -104
  br label %30

30:                                               ; preds = %25, %10
  %31 = phi ptr [ %29, %25 ], [ null, %10 ]
  %32 = getelementptr inbounds nuw i8, ptr %0, i64 152
  store ptr %31, ptr %32, align 8, !tbaa !86
  %33 = tail call i32 @lj_vm_cpcall(ptr noundef nonnull %14, ptr noundef null, ptr noundef nonnull %0, ptr noundef nonnull @trace_state) #14
  %.not10.i = icmp eq i32 %33, 0
  br i1 %.not10.i, label %lj_trace_ins.exit, label %.lr.ph.i

.lr.ph.i:                                         ; preds = %30, %.lr.ph.i
  store i32 22, ptr %3, align 4, !tbaa !87
  %34 = load ptr, ptr %13, align 8, !tbaa !7
  %35 = tail call i32 @lj_vm_cpcall(ptr noundef %34, ptr noundef null, ptr noundef nonnull %0, ptr noundef nonnull @trace_state) #14
  %.not.i = icmp eq i32 %35, 0
  br i1 %.not.i, label %lj_trace_ins.exit, label %.lr.ph.i, !llvm.loop !88

lj_trace_ins.exit:                                ; preds = %.lr.ph.i, %30, %6, %2
  ret void
}